; Function Attrs: mustprogress nofree norecurse nosync nounwind willreturn memory(read, inaccessiblemem: none) uwtable
define hidden noundef i32 @_ZNK2lp15lar_core_solver22get_number_of_non_intsEv(ptr nocapture noundef nonnull readonly align 8 dereferenceable(632) %this) local_unnamed_addr #5 align 2 {
entry:
  %m_x = getelementptr inbounds i8, ptr %this, i64 448
  %0 = load ptr, ptr %m_x, align 8
  %1 = load ptr, ptr %0, align 8
  %cmp.i.i = icmp eq ptr %1, null
  br i1 %cmp.i.i, label %for.end, label %_ZN6vectorIN2lp12numeric_pairI8rationalEELb1EjE3endEv.exit

_ZN6vectorIN2lp12numeric_pairI8rationalEELb1EjE3endEv.exit: ; preds = %entry
  %arrayidx.i.i = getelementptr inbounds i8, ptr %1, i64 -4
  %2 = load i32, ptr %arrayidx.i.i, align 4
  %3 = zext i32 %2 to i64
  %add.ptr.i = getelementptr inbounds %"struct.lp::numeric_pair", ptr %1, i64 %3
  %cmp.not7 = icmp eq i32 %2, 0
  br i1 %cmp.not7, label %for.end, label %for.body

for.body:                                         ; preds = %_ZN6vectorIN2lp12numeric_pairI8rationalEELb1EjE3endEv.exit, %for.cond
  %n.09 = phi i32 [ %spec.select, %for.cond ], [ 0, %_ZN6vectorIN2lp12numeric_pairI8rationalEELb1EjE3endEv.exit ]
  %__begin1.08 = phi ptr [ %incdec.ptr, %for.cond ], [ %1, %_ZN6vectorIN2lp12numeric_pairI8rationalEELb1EjE3endEv.exit ]
  %m_den.i.i.i = getelementptr inbounds i8, ptr %__begin1.08, i64 16
  %m_kind.i.i.i.i.i.i = getelementptr inbounds i8, ptr %__begin1.08, i64 20
  %bf.load.i.i.i.i.i.i = load i8, ptr %m_kind.i.i.i.i.i.i, align 4
  %bf.clear.i.i.i.i.i.i = and i8 %bf.load.i.i.i.i.i.i, 1
  %cmp.i.i.i.i.i.i = icmp eq i8 %bf.clear.i.i.i.i.i.i, 0
  %4 = load i32, ptr %m_den.i.i.i, align 8
  %cmp.i.i.i.i.i = icmp eq i32 %4, 1
  %5 = select i1 %cmp.i.i.i.i.i.i, i1 %cmp.i.i.i.i.i, i1 false
  br i1 %5, label %_ZNK2lp12numeric_pairI8rationalE6is_intEv.exit, label %for.cond

_ZNK2lp12numeric_pairI8rationalE6is_intEv.exit:   ; preds = %for.body
  %y.i = getelementptr inbounds i8, ptr %__begin1.08, i64 32
  %6 = load i32, ptr %y.i, align 8
  %.fr = freeze i32 %6
  %cmp.i.i.i.i1.i = icmp ne i32 %.fr, 0
  %inc = zext i1 %cmp.i.i.i.i1.i to i32
  br label %for.cond

for.cond:                                         ; preds = %for.body, %_ZNK2lp12numeric_pairI8rationalE6is_intEv.exit
  %inc.sink = phi i32 [ %inc, %_ZNK2lp12numeric_pairI8rationalE6is_intEv.exit ], [ 1, %for.body ]
  %spec.select = add i32 %n.09, %inc.sink
  %incdec.ptr = getelementptr inbounds i8, ptr %__begin1.08, i64 64
  %cmp.not = icmp eq ptr %incdec.ptr, %add.ptr.i
  br i1 %cmp.not, label %for.end, label %for.body

for.end:                                          ; preds = %for.cond, %entry, %_ZN6vectorIN2lp12numeric_pairI8rationalEELb1EjE3endEv.exit
  %n.0.lcssa = phi i32 [ 0, %_ZN6vectorIN2lp12numeric_pairI8rationalEELb1EjE3endEv.exit ], [ 0, %entry ], [ %spec.select, %for.cond ]
  ret i32 %n.0.lcssa
}